target datalayout = "e-m:e-p270:32:32-p271:32:32-p272:64:64-i64:64-i128:128-f80:128-n8:16:32:64-S128"
target triple = "x86_64-pc-linux-gnu"

%"class.llvm::APInt" = type <{ %union.anon, i32, [4 x i8] }>
%union.anon = type { i64 }
%"struct.(anonymous namespace)::LinearExpression" = type { %"struct.(anonymous namespace)::CastedValue", %"class.llvm::APInt", %"class.llvm::APInt", i8, i8, [6 x i8] }
%"struct.(anonymous namespace)::CastedValue" = type <{ ptr, i32, i32, i32, i8, [3 x i8] }>

; Function Attrs: mustprogress nounwind uwtable
define linkonce_odr hidden noundef zeroext i1 @_ZNK4llvm5APInt12needsCleanupEv(ptr noundef nonnull align 8 dereferenceable(12) %0) #1 comdat align 2 {
  %2 = alloca ptr, align 8
  store ptr %0, ptr %2, align 8
  %3 = load ptr, ptr %2, align 8
  %4 = call noundef zeroext i1 @_ZNK4llvm5APInt12isSingleWordEv(ptr noundef nonnull align 8 dereferenceable(12) %3)
  %5 = xor i1 %4, true
  ret i1 %5
}

; Function Attrs: mustprogress nounwind uwtable
define linkonce_odr hidden void @_ZN4llvm5APIntC2ERKS0_(ptr noundef nonnull align 8 dereferenceable(12) %0, ptr noundef nonnull align 8 dereferenceable(12) %1) unnamed_addr #1 comdat align 2 {
  %3 = alloca ptr, align 8
  %4 = alloca ptr, align 8
  store ptr %0, ptr %3, align 8
  store ptr %1, ptr %4, align 8
  %5 = load ptr, ptr %3, align 8
  %6 = getelementptr inbounds nuw %"class.llvm::APInt", ptr %5, i32 0, i32 1
  %7 = load ptr, ptr %4, align 8
  %8 = getelementptr inbounds nuw %"class.llvm::APInt", ptr %7, i32 0, i32 1
  %9 = load i32, ptr %8, align 8
  store i32 %9, ptr %6, align 8
  %10 = call noundef zeroext i1 @_ZNK4llvm5APInt12isSingleWordEv(ptr noundef nonnull align 8 dereferenceable(12) %5)
  br i1 %10, label %11, label %16

11:                                               ; preds = %2
  %12 = load ptr, ptr %4, align 8
  %13 = getelementptr inbounds nuw %"class.llvm::APInt", ptr %12, i32 0, i32 0
  %14 = load i64, ptr %13, align 8
  %15 = getelementptr inbounds nuw %"class.llvm::APInt", ptr %5, i32 0, i32 0
  store i64 %14, ptr %15, align 8
  br label %18

16:                                               ; preds = %2
  %17 = load ptr, ptr %4, align 8
  call void @_ZN4llvm5APInt12initSlowCaseERKS0_(ptr noundef nonnull align 8 dereferenceable(12) %5, ptr noundef nonnull align 8 dereferenceable(12) %17)
  br label %18

18:                                               ; preds = %16, %11
  ret void
}

; Function Attrs: mustprogress nounwind uwtable
define linkonce_odr hidden noundef zeroext i1 @_ZNK4llvm5APInt12isSingleWordEv(ptr noundef nonnull align 8 dereferenceable(12) %0) #1 comdat align 2 {
  %2 = alloca ptr, align 8
  store ptr %0, ptr %2, align 8
  %3 = load ptr, ptr %2, align 8
  %4 = getelementptr inbounds nuw %"class.llvm::APInt", ptr %3, i32 0, i32 1
  %5 = load i32, ptr %4, align 8
  %6 = icmp ule i32 %5, 64
  ret i1 %6
}

; Function Attrs: mustprogress nounwind uwtable
define linkonce_odr hidden void @_ZN4llvm5APIntD2Ev(ptr noundef nonnull align 8 dereferenceable(12) %0) unnamed_addr #1 comdat align 2 {
  %2 = alloca ptr, align 8
  store ptr %0, ptr %2, align 8
  %3 = load ptr, ptr %2, align 8
  %4 = call noundef zeroext i1 @_ZNK4llvm5APInt12needsCleanupEv(ptr noundef nonnull align 8 dereferenceable(12) %3)
  br i1 %4, label %5, label %11

5:                                                ; preds = %1
  %6 = getelementptr inbounds nuw %"class.llvm::APInt", ptr %3, i32 0, i32 0
  %7 = load ptr, ptr %6, align 8
  %8 = icmp eq ptr %7, null
  br i1 %8, label %10, label %9

9:                                                ; preds = %5
  call void @_ZdaPv(ptr noundef %7) #15
  br label %10

10:                                               ; preds = %9, %5
  br label %11

11:                                               ; preds = %10, %1
  ret void
}

; Function Attrs: mustprogress nounwind uwtable
define internal void @_ZN12_GLOBAL__N_116LinearExpressionC2ERKNS_11CastedValueERKN4llvm5APIntES7_bb(ptr noundef nonnull align 8 dereferenceable(58) %0, ptr noundef nonnull align 8 dereferenceable(21) %1, ptr noundef nonnull align 8 dereferenceable(12) %2, ptr noundef nonnull align 8 dereferenceable(12) %3, i1 noundef zeroext %4, i1 noundef zeroext %5) unnamed_addr #1 align 2 {
  %7 = alloca ptr, align 8
  %8 = alloca ptr, align 8
  %9 = alloca ptr, align 8
  %10 = alloca ptr, align 8
  %11 = alloca i8, align 1
  %12 = alloca i8, align 1
  store ptr %0, ptr %7, align 8
  store ptr %1, ptr %8, align 8
  store ptr %2, ptr %9, align 8
  store ptr %3, ptr %10, align 8
  %13 = zext i1 %4 to i8
  store i8 %13, ptr %11, align 1
  %14 = zext i1 %5 to i8
  store i8 %14, ptr %12, align 1
  %15 = load ptr, ptr %7, align 8
  %16 = getelementptr inbounds nuw %"struct.(anonymous namespace)::LinearExpression", ptr %15, i32 0, i32 0
  %17 = load ptr, ptr %8, align 8
  call void @llvm.memcpy.p0.p0.i64(ptr align 8 %16, ptr align 8 %17, i64 24, i1 false)
  %18 = getelementptr inbounds nuw %"struct.(anonymous namespace)::LinearExpression", ptr %15, i32 0, i32 1
  %19 = load ptr, ptr %9, align 8
  call void @_ZN4llvm5APIntC2ERKS0_(ptr noundef nonnull align 8 dereferenceable(12) %18, ptr noundef nonnull align 8 dereferenceable(12) %19)
  %20 = getelementptr inbounds nuw %"struct.(anonymous namespace)::LinearExpression", ptr %15, i32 0, i32 2
  %21 = load ptr, ptr %10, align 8
  call void @_ZN4llvm5APIntC2ERKS0_(ptr noundef nonnull align 8 dereferenceable(12) %20, ptr noundef nonnull align 8 dereferenceable(12) %21)
  %22 = getelementptr inbounds nuw %"struct.(anonymous namespace)::LinearExpression", ptr %15, i32 0, i32 3
  %23 = load i8, ptr %11, align 1
  %24 = trunc i8 %23 to i1
  %25 = zext i1 %24 to i8
  store i8 %25, ptr %22, align 8
  %26 = getelementptr inbounds nuw %"struct.(anonymous namespace)::LinearExpression", ptr %15, i32 0, i32 4
  %27 = load i8, ptr %12, align 1
  %28 = trunc i8 %27 to i1
  %29 = zext i1 %28 to i8
  store i8 %29, ptr %26, align 1
  ret void
}

; Function Attrs: mustprogress nounwind uwtable
define linkonce_odr hidden noundef zeroext i1 @_ZNK4llvm5APInt6isZeroEv(ptr noundef nonnull align 8 dereferenceable(12) %0) #1 comdat align 2 {
  %2 = alloca i1, align 1
  %3 = alloca ptr, align 8
  store ptr %0, ptr %3, align 8
  %4 = load ptr, ptr %3, align 8
  %5 = call noundef zeroext i1 @_ZNK4llvm5APInt12isSingleWordEv(ptr noundef nonnull align 8 dereferenceable(12) %4)
  br i1 %5, label %6, label %10

6:                                                ; preds = %1
  %7 = getelementptr inbounds nuw %"class.llvm::APInt", ptr %4, i32 0, i32 0
  %8 = load i64, ptr %7, align 8
  %9 = icmp eq i64 %8, 0
  store i1 %9, ptr %2, align 1
  br label %15

10:                                               ; preds = %1
  %11 = call noundef i32 @_ZNK4llvm5APInt25countLeadingZerosSlowCaseEv(ptr noundef nonnull align 8 dereferenceable(12) %4) #17
  %12 = getelementptr inbounds nuw %"class.llvm::APInt", ptr %4, i32 0, i32 1
  %13 = load i32, ptr %12, align 8
  %14 = icmp eq i32 %11, %13
  store i1 %14, ptr %2, align 1
  br label %15

15:                                               ; preds = %10, %6
  %16 = load i1, ptr %2, align 1
  ret i1 %16
}

; Function Attrs: mustprogress nounwind uwtable
define linkonce_odr hidden noundef zeroext i1 @_ZNK4llvm5APInt5isOneEv(ptr noundef nonnull align 8 dereferenceable(12) %0) #1 comdat align 2 {
  %2 = alloca i1, align 1
  %3 = alloca ptr, align 8
  store ptr %0, ptr %3, align 8
  %4 = load ptr, ptr %3, align 8
  %5 = call noundef zeroext i1 @_ZNK4llvm5APInt12isSingleWordEv(ptr noundef nonnull align 8 dereferenceable(12) %4)
  br i1 %5, label %6, label %10

6:                                                ; preds = %1
  %7 = getelementptr inbounds nuw %"class.llvm::APInt", ptr %4, i32 0, i32 0
  %8 = load i64, ptr %7, align 8
  %9 = icmp eq i64 %8, 1
  store i1 %9, ptr %2, align 1
  br label %16

10:                                               ; preds = %1
  %11 = call noundef i32 @_ZNK4llvm5APInt25countLeadingZerosSlowCaseEv(ptr noundef nonnull align 8 dereferenceable(12) %4) #17
  %12 = getelementptr inbounds nuw %"class.llvm::APInt", ptr %4, i32 0, i32 1
  %13 = load i32, ptr %12, align 8
  %14 = sub i32 %13, 1
  %15 = icmp eq i32 %11, %14
  store i1 %15, ptr %2, align 1
  br label %16

16:                                               ; preds = %10, %6
  %17 = load i1, ptr %2, align 1
  ret i1 %17
}

; Function Attrs: mustprogress nounwind uwtable
define internal void @_ZNK12_GLOBAL__N_116LinearExpression3mulERKN4llvm5APIntEbb(ptr dead_on_unwind noalias writable sret(%"struct.(anonymous namespace)::LinearExpression") align 8 %0, ptr noundef nonnull align 8 dereferenceable(58) %1, ptr noundef nonnull align 8 dereferenceable(12) %2, i1 noundef zeroext %3, i1 noundef zeroext %4) #1 align 2 {
  %6 = alloca ptr, align 8
  %7 = alloca ptr, align 8
  %8 = alloca ptr, align 8
  %9 = alloca i8, align 1
  %10 = alloca i8, align 1
  %11 = alloca i8, align 1
  %12 = alloca i8, align 1
  %13 = alloca %"class.llvm::APInt", align 8
  %14 = alloca %"class.llvm::APInt", align 8
  store ptr %0, ptr %6, align 8
  store ptr %1, ptr %7, align 8
  store ptr %2, ptr %8, align 8
  %15 = zext i1 %3 to i8
  store i8 %15, ptr %9, align 1
  %16 = zext i1 %4 to i8
  store i8 %16, ptr %10, align 1
  %17 = load ptr, ptr %7, align 8
  %18 = getelementptr inbounds nuw %"struct.(anonymous namespace)::LinearExpression", ptr %17, i32 0, i32 4
  %19 = load i8, ptr %18, align 1
  %20 = trunc i8 %19 to i1
  br i1 %20, label %21, label %34

21:                                               ; preds = %5
  %22 = load ptr, ptr %8, align 8
  %23 = call noundef zeroext i1 @_ZNK4llvm5APInt5isOneEv(ptr noundef nonnull align 8 dereferenceable(12) %22)
  br i1 %23, label %32, label %24

24:                                               ; preds = %21
  %25 = load i8, ptr %10, align 1
  %26 = trunc i8 %25 to i1
  br i1 %26, label %27, label %30

27:                                               ; preds = %24
  %28 = getelementptr inbounds nuw %"struct.(anonymous namespace)::LinearExpression", ptr %17, i32 0, i32 2
  %29 = call noundef zeroext i1 @_ZNK4llvm5APInt6isZeroEv(ptr noundef nonnull align 8 dereferenceable(12) %28)
  br label %30

30:                                               ; preds = %27, %24
  %31 = phi i1 [ false, %24 ], [ %29, %27 ]
  br label %32

32:                                               ; preds = %30, %21
  %33 = phi i1 [ true, %21 ], [ %31, %30 ]
  br label %34

34:                                               ; preds = %32, %5
  %35 = phi i1 [ false, %5 ], [ %33, %32 ]
  %36 = zext i1 %35 to i8
  store i8 %36, ptr %11, align 1
  %37 = getelementptr inbounds nuw %"struct.(anonymous namespace)::LinearExpression", ptr %17, i32 0, i32 3
  %38 = load i8, ptr %37, align 8
  %39 = trunc i8 %38 to i1
  br i1 %39, label %40, label %48

40:                                               ; preds = %34
  %41 = load ptr, ptr %8, align 8
  %42 = call noundef zeroext i1 @_ZNK4llvm5APInt5isOneEv(ptr noundef nonnull align 8 dereferenceable(12) %41)
  br i1 %42, label %46, label %43

43:                                               ; preds = %40
  %44 = load i8, ptr %9, align 1
  %45 = trunc i8 %44 to i1
  br label %46

46:                                               ; preds = %43, %40
  %47 = phi i1 [ true, %40 ], [ %45, %43 ]
  br label %48

48:                                               ; preds = %46, %34
  %49 = phi i1 [ false, %34 ], [ %47, %46 ]
  %50 = zext i1 %49 to i8
  store i8 %50, ptr %12, align 1
  %51 = getelementptr inbounds nuw %"struct.(anonymous namespace)::LinearExpression", ptr %17, i32 0, i32 0
  %52 = getelementptr inbounds nuw %"struct.(anonymous namespace)::LinearExpression", ptr %17, i32 0, i32 1
  %53 = load ptr, ptr %8, align 8
  call void @_ZNK4llvm5APIntmlERKS0_(ptr dead_on_unwind writable sret(%"class.llvm::APInt") align 8 %13, ptr noundef nonnull align 8 dereferenceable(12) %52, ptr noundef nonnull align 8 dereferenceable(12) %53)
  %54 = getelementptr inbounds nuw %"struct.(anonymous namespace)::LinearExpression", ptr %17, i32 0, i32 2
  %55 = load ptr, ptr %8, align 8
  call void @_ZNK4llvm5APIntmlERKS0_(ptr dead_on_unwind writable sret(%"class.llvm::APInt") align 8 %14, ptr noundef nonnull align 8 dereferenceable(12) %54, ptr noundef nonnull align 8 dereferenceable(12) %55)
  %56 = load i8, ptr %12, align 1
  %57 = trunc i8 %56 to i1
  %58 = load i8, ptr %11, align 1
  %59 = trunc i8 %58 to i1
  call void @_ZN12_GLOBAL__N_116LinearExpressionC2ERKNS_11CastedValueERKN4llvm5APIntES7_bb(ptr noundef nonnull align 8 dereferenceable(58) %0, ptr noundef nonnull align 8 dereferenceable(21) %51, ptr noundef nonnull align 8 dereferenceable(12) %13, ptr noundef nonnull align 8 dereferenceable(12) %14, i1 noundef zeroext %57, i1 noundef zeroext %59)
  call void @_ZN4llvm5APIntD2Ev(ptr noundef nonnull align 8 dereferenceable(12) %14) #2
  call void @_ZN4llvm5APIntD2Ev(ptr noundef nonnull align 8 dereferenceable(12) %13) #2
  ret void
}