; Function Attrs: mustprogress nounwind uwtable
define internal fastcc void @_ZNK12_GLOBAL__N_116LinearExpression3mulERKN4llvm5APIntEbb(ptr dead_on_unwind noalias writable align 8 %0, ptr noundef nonnull align 8 dereferenceable(58) %1, ptr noundef nonnull align 8 dereferenceable(12) %2, i1 noundef zeroext %3, i1 noundef zeroext %4) unnamed_addr #0 align 2 {
  %6 = alloca %"class.llvm::APInt", align 8
  %7 = alloca %"class.llvm::APInt", align 8
  %8 = getelementptr inbounds nuw i8, ptr %1, i64 57
  %9 = load i8, ptr %8, align 1
  %10 = trunc i8 %9 to i1
  br i1 %10, label %11, label %_ZNK4llvm5APInt6isZeroEv.exit

11:                                               ; preds = %5
  %12 = getelementptr inbounds nuw i8, ptr %2, i64 8
  %13 = load i32, ptr %12, align 8
  %14 = icmp ult i32 %13, 65
  br i1 %14, label %15, label %18

15:                                               ; preds = %11
  %16 = load i64, ptr %2, align 8
  %17 = icmp eq i64 %16, 1
  br label %_ZNK4llvm5APInt5isOneEv.exit

18:                                               ; preds = %11
  %19 = tail call noundef i32 @_ZNK4llvm5APInt25countLeadingZerosSlowCaseEv(ptr noundef nonnull align 8 dereferenceable(12) %2) #25
  %20 = add i32 %13, -1
  %21 = icmp eq i32 %19, %20
  br label %_ZNK4llvm5APInt5isOneEv.exit

_ZNK4llvm5APInt5isOneEv.exit:                     ; preds = %15, %18
  %.0.i = phi i1 [ %17, %15 ], [ %21, %18 ]
  %.not = xor i1 %4, true
  %brmerge = or i1 %.0.i, %.not
  br i1 %brmerge, label %_ZNK4llvm5APInt6isZeroEv.exit, label %22

22:                                               ; preds = %_ZNK4llvm5APInt5isOneEv.exit
  %23 = getelementptr inbounds nuw i8, ptr %1, i64 40
  %24 = getelementptr inbounds i8, ptr %1, i64 48
  %25 = load i32, ptr %24, align 8
  %26 = icmp ult i32 %25, 65
  br i1 %26, label %27, label %30

27:                                               ; preds = %22
  %28 = load i64, ptr %23, align 8
  %29 = icmp eq i64 %28, 0
  br label %_ZNK4llvm5APInt6isZeroEv.exit

30:                                               ; preds = %22
  %31 = tail call noundef i32 @_ZNK4llvm5APInt25countLeadingZerosSlowCaseEv(ptr noundef nonnull align 8 dereferenceable(12) %23) #25
  %32 = icmp eq i32 %31, %25
  br label %_ZNK4llvm5APInt6isZeroEv.exit

_ZNK4llvm5APInt6isZeroEv.exit:                    ; preds = %30, %27, %_ZNK4llvm5APInt5isOneEv.exit, %5
  %33 = phi i1 [ false, %5 ], [ %.0.i, %_ZNK4llvm5APInt5isOneEv.exit ], [ %29, %27 ], [ %32, %30 ]
  %34 = getelementptr inbounds nuw i8, ptr %1, i64 56
  %35 = load i8, ptr %34, align 8
  %36 = trunc i8 %35 to i1
  br i1 %36, label %37, label %50

37:                                               ; preds = %_ZNK4llvm5APInt6isZeroEv.exit
  %38 = getelementptr inbounds nuw i8, ptr %2, i64 8
  %39 = load i32, ptr %38, align 8
  %40 = icmp ult i32 %39, 65
  br i1 %40, label %41, label %44

41:                                               ; preds = %37
  %42 = load i64, ptr %2, align 8
  %43 = icmp eq i64 %42, 1
  br label %_ZNK4llvm5APInt5isOneEv.exit10

44:                                               ; preds = %37
  %45 = tail call noundef i32 @_ZNK4llvm5APInt25countLeadingZerosSlowCaseEv(ptr noundef nonnull align 8 dereferenceable(12) %2) #25
  %46 = add i32 %39, -1
  %47 = icmp eq i32 %45, %46
  br label %_ZNK4llvm5APInt5isOneEv.exit10

_ZNK4llvm5APInt5isOneEv.exit10:                   ; preds = %41, %44
  %.0.i9 = phi i1 [ %43, %41 ], [ %47, %44 ]
  %48 = or i1 %3, %.0.i9
  %49 = zext i1 %48 to i8
  br label %50

50:                                               ; preds = %_ZNK4llvm5APInt5isOneEv.exit10, %_ZNK4llvm5APInt6isZeroEv.exit
  %51 = phi i8 [ 0, %_ZNK4llvm5APInt6isZeroEv.exit ], [ %49, %_ZNK4llvm5APInt5isOneEv.exit10 ]
  %52 = getelementptr inbounds nuw i8, ptr %1, i64 24
  call void @_ZNK4llvm5APIntmlERKS0_(ptr dead_on_unwind nonnull writable sret(%"class.llvm::APInt") align 8 %6, ptr noundef nonnull align 8 dereferenceable(12) %52, ptr noundef nonnull align 8 dereferenceable(12) %2) #22
  %53 = getelementptr inbounds nuw i8, ptr %1, i64 40
  call void @_ZNK4llvm5APIntmlERKS0_(ptr dead_on_unwind nonnull writable sret(%"class.llvm::APInt") align 8 %7, ptr noundef nonnull align 8 dereferenceable(12) %53, ptr noundef nonnull align 8 dereferenceable(12) %2) #22
  call void @llvm.memcpy.p0.p0.i64(ptr noundef nonnull align 8 dereferenceable(24) %0, ptr noundef nonnull readonly align 8 dereferenceable(24) %1, i64 24, i1 false)
  %54 = getelementptr inbounds nuw i8, ptr %0, i64 24
  %55 = getelementptr inbounds i8, ptr %0, i64 32
  %56 = getelementptr inbounds nuw i8, ptr %6, i64 8
  %57 = load i32, ptr %56, align 8
  store i32 %57, ptr %55, align 8
  %58 = icmp ult i32 %57, 65
  br i1 %58, label %59, label %61

59:                                               ; preds = %50
  %60 = load i64, ptr %6, align 8
  store i64 %60, ptr %54, align 8
  br label %_ZN4llvm5APIntC2ERKS0_.exit.i

61:                                               ; preds = %50
  call void @_ZN4llvm5APInt12initSlowCaseERKS0_(ptr noundef nonnull align 8 dereferenceable(12) %54, ptr noundef nonnull align 8 dereferenceable(12) %6) #22
  br label %_ZN4llvm5APIntC2ERKS0_.exit.i

_ZN4llvm5APIntC2ERKS0_.exit.i:                    ; preds = %61, %59
  %62 = getelementptr inbounds nuw i8, ptr %0, i64 40
  %63 = getelementptr inbounds i8, ptr %0, i64 48
  %64 = getelementptr inbounds nuw i8, ptr %7, i64 8
  %65 = load i32, ptr %64, align 8
  store i32 %65, ptr %63, align 8
  %66 = icmp ult i32 %65, 65
  br i1 %66, label %_ZN12_GLOBAL__N_116LinearExpressionC2ERKNS_11CastedValueERKN4llvm5APIntES7_bb.exit.thread, label %_ZN12_GLOBAL__N_116LinearExpressionC2ERKNS_11CastedValueERKN4llvm5APIntES7_bb.exit

_ZN12_GLOBAL__N_116LinearExpressionC2ERKNS_11CastedValueERKN4llvm5APIntES7_bb.exit.thread: ; preds = %_ZN4llvm5APIntC2ERKS0_.exit.i
  %67 = load i64, ptr %7, align 8
  store i64 %67, ptr %62, align 8
  %68 = zext i1 %33 to i8
  %69 = getelementptr inbounds nuw i8, ptr %0, i64 56
  store i8 %51, ptr %69, align 8
  %70 = getelementptr inbounds nuw i8, ptr %0, i64 57
  store i8 %68, ptr %70, align 1
  br label %_ZN4llvm5APIntD2Ev.exit

_ZN12_GLOBAL__N_116LinearExpressionC2ERKNS_11CastedValueERKN4llvm5APIntES7_bb.exit: ; preds = %_ZN4llvm5APIntC2ERKS0_.exit.i
  call void @_ZN4llvm5APInt12initSlowCaseERKS0_(ptr noundef nonnull align 8 dereferenceable(12) %62, ptr noundef nonnull align 8 dereferenceable(12) %7) #22
  %.pre = load i32, ptr %64, align 8
  %71 = icmp ugt i32 %.pre, 64
  %72 = zext i1 %33 to i8
  %73 = getelementptr inbounds nuw i8, ptr %0, i64 56
  store i8 %51, ptr %73, align 8
  %74 = getelementptr inbounds nuw i8, ptr %0, i64 57
  store i8 %72, ptr %74, align 1
  br i1 %71, label %75, label %_ZN4llvm5APIntD2Ev.exit

75:                                               ; preds = %_ZN12_GLOBAL__N_116LinearExpressionC2ERKNS_11CastedValueERKN4llvm5APIntES7_bb.exit
  %76 = load ptr, ptr %7, align 8
  %77 = icmp eq ptr %76, null
  br i1 %77, label %_ZN4llvm5APIntD2Ev.exit, label %78

78:                                               ; preds = %75
  call void @_ZdaPv(ptr noundef nonnull %76) #26
  br label %_ZN4llvm5APIntD2Ev.exit

_ZN4llvm5APIntD2Ev.exit:                          ; preds = %_ZN12_GLOBAL__N_116LinearExpressionC2ERKNS_11CastedValueERKN4llvm5APIntES7_bb.exit.thread, %_ZN12_GLOBAL__N_116LinearExpressionC2ERKNS_11CastedValueERKN4llvm5APIntES7_bb.exit, %75, %78
  %79 = load i32, ptr %56, align 8
  %80 = icmp ugt i32 %79, 64
  br i1 %80, label %81, label %_ZN4llvm5APIntD2Ev.exit11

81:                                               ; preds = %_ZN4llvm5APIntD2Ev.exit
  %82 = load ptr, ptr %6, align 8
  %83 = icmp eq ptr %82, null
  br i1 %83, label %_ZN4llvm5APIntD2Ev.exit11, label %84

84:                                               ; preds = %81
  call void @_ZdaPv(ptr noundef nonnull %82) #26
  br label %_ZN4llvm5APIntD2Ev.exit11

_ZN4llvm5APIntD2Ev.exit11:                        ; preds = %_ZN4llvm5APIntD2Ev.exit, %81, %84
  ret void
}